; Function Attrs: nounwind uwtable
define internal range(i32 0, 2) i32 @test_PACKET_get_sub_packet() #0 {
  %1 = tail call i32 @test_true(ptr noundef nonnull @.str.25, i32 noundef 138, ptr noundef nonnull @.str.34, i32 noundef 1) #6
  %.not = icmp eq i32 %1, 0
  br i1 %.not, label %44, label %PACKET_get_sub_packet.exit

PACKET_get_sub_packet.exit:                       ; preds = %0
  %2 = tail call i32 @test_true(ptr noundef nonnull @.str.25, i32 noundef 139, ptr noundef nonnull @.str.66, i32 noundef 1) #6
  %.not1 = icmp eq i32 %2, 0
  br i1 %.not1, label %44, label %PACKET_get_net_4.exit

PACKET_get_net_4.exit:                            ; preds = %PACKET_get_sub_packet.exit
  %3 = load i8, ptr @smbuf, align 16, !tbaa !4
  %4 = load i8, ptr getelementptr inbounds nuw (i8, ptr @smbuf, i64 1), align 1, !tbaa !4
  %5 = load i8, ptr getelementptr inbounds nuw (i8, ptr @smbuf, i64 2), align 2, !tbaa !4
  %6 = load i8, ptr getelementptr inbounds nuw (i8, ptr @smbuf, i64 3), align 1, !tbaa !4
  %7 = tail call i32 @test_true(ptr noundef nonnull @.str.25, i32 noundef 140, ptr noundef nonnull @.str.67, i32 noundef 1) #6
  %.not2 = icmp eq i32 %7, 0
  br i1 %.not2, label %44, label %8

8:                                                ; preds = %PACKET_get_net_4.exit
  %9 = zext i8 %5 to i64
  %10 = shl nuw nsw i64 %9, 8
  %11 = zext i8 %4 to i64
  %12 = shl nuw nsw i64 %11, 16
  %13 = zext i8 %3 to i64
  %14 = shl nuw nsw i64 %13, 24
  %15 = or disjoint i64 %12, %14
  %16 = or disjoint i64 %15, %10
  %17 = zext i8 %6 to i64
  %18 = or disjoint i64 %16, %17
  %19 = tail call i32 @test_ulong_eq(ptr noundef nonnull @.str.25, i32 noundef 141, ptr noundef nonnull @.str.47, ptr noundef nonnull @.str.64, i64 noundef %18, i64 noundef 33818120) #6
  %.not3 = icmp eq i32 %19, 0
  br i1 %.not3, label %44, label %20

20:                                               ; preds = %8
  %21 = tail call i32 @test_size_t_eq(ptr noundef nonnull @.str.25, i32 noundef 142, ptr noundef nonnull @.str.68, ptr noundef nonnull @.str.32, i64 noundef 0, i64 noundef 0) #6
  %.not4 = icmp eq i32 %21, 0
  br i1 %.not4, label %44, label %PACKET_forward.exit

PACKET_forward.exit:                              ; preds = %20
  %22 = tail call i32 @test_true(ptr noundef nonnull @.str.25, i32 noundef 143, ptr noundef nonnull @.str.53, i32 noundef 1) #6
  %.not5 = icmp eq i32 %22, 0
  br i1 %.not5, label %44, label %PACKET_get_sub_packet.exit17

PACKET_get_sub_packet.exit17:                     ; preds = %PACKET_forward.exit
  %23 = tail call i32 @test_true(ptr noundef nonnull @.str.25, i32 noundef 144, ptr noundef nonnull @.str.66, i32 noundef 1) #6
  %.not6 = icmp eq i32 %23, 0
  br i1 %.not6, label %44, label %PACKET_get_net_4.exit20

PACKET_get_net_4.exit20:                          ; preds = %PACKET_get_sub_packet.exit17
  %24 = load i8, ptr getelementptr inbounds nuw (i8, ptr @smbuf, i64 251), align 1, !tbaa !4
  %25 = load i8, ptr getelementptr inbounds nuw (i8, ptr @smbuf, i64 252), align 4, !tbaa !4
  %26 = load i8, ptr getelementptr inbounds nuw (i8, ptr @smbuf, i64 253), align 1, !tbaa !4
  %27 = load i8, ptr getelementptr inbounds nuw (i8, ptr @smbuf, i64 254), align 2, !tbaa !4
  %28 = tail call i32 @test_true(ptr noundef nonnull @.str.25, i32 noundef 145, ptr noundef nonnull @.str.67, i32 noundef 1) #6
  %.not7 = icmp eq i32 %28, 0
  br i1 %.not7, label %44, label %29

29:                                               ; preds = %PACKET_get_net_4.exit20
  %30 = zext i8 %26 to i64
  %31 = shl nuw nsw i64 %30, 8
  %32 = zext i8 %25 to i64
  %33 = shl nuw nsw i64 %32, 16
  %34 = zext i8 %24 to i64
  %35 = shl nuw nsw i64 %34, 24
  %36 = or disjoint i64 %33, %35
  %37 = or disjoint i64 %36, %31
  %38 = zext i8 %27 to i64
  %39 = or disjoint i64 %37, %38
  %40 = tail call i32 @test_ulong_eq(ptr noundef nonnull @.str.25, i32 noundef 146, ptr noundef nonnull @.str.47, ptr noundef nonnull @.str.65, i64 noundef %39, i64 noundef 4177198334) #6
  %.not8 = icmp eq i32 %40, 0
  br i1 %.not8, label %44, label %41

41:                                               ; preds = %29
  %42 = tail call i32 @test_size_t_eq(ptr noundef nonnull @.str.25, i32 noundef 147, ptr noundef nonnull @.str.68, ptr noundef nonnull @.str.32, i64 noundef 0, i64 noundef 0) #6
  %.not9 = icmp eq i32 %42, 0
  br i1 %.not9, label %44, label %PACKET_get_sub_packet.exit23

PACKET_get_sub_packet.exit23:                     ; preds = %41
  %43 = tail call i32 @test_false(ptr noundef nonnull @.str.25, i32 noundef 148, ptr noundef nonnull @.str.66, i32 noundef 0) #6
  %.not10 = icmp ne i32 %43, 0
  %spec.select = zext i1 %.not10 to i32
  br label %44

44:                                               ; preds = %PACKET_get_sub_packet.exit23, %0, %PACKET_get_sub_packet.exit, %PACKET_get_net_4.exit, %8, %20, %PACKET_forward.exit, %PACKET_get_sub_packet.exit17, %PACKET_get_net_4.exit20, %29, %41
  %.0 = phi i32 [ 0, %41 ], [ 0, %29 ], [ 0, %PACKET_get_net_4.exit20 ], [ 0, %PACKET_get_sub_packet.exit17 ], [ 0, %PACKET_forward.exit ], [ 0, %20 ], [ 0, %8 ], [ 0, %PACKET_get_net_4.exit ], [ 0, %PACKET_get_sub_packet.exit ], [ 0, %0 ], [ %spec.select, %PACKET_get_sub_packet.exit23 ]
  ret i32 %.0
}